target datalayout = "e-m:e-p270:32:32-p271:32:32-p272:64:64-i64:64-i128:128-f80:128-n8:16:32:64-S128"
target triple = "x86_64-pc-linux-gnu"

%struct.Abc_Frame_t_ = type { ptr, ptr, ptr, ptr, ptr, ptr, ptr, ptr, ptr, ptr, i32, i32, i32, i32, i32, ptr, float, float, i32, i32, ptr, ptr, ptr, double, double, ptr, ptr, ptr, ptr, ptr, ptr, ptr, ptr, ptr, ptr, ptr, ptr, float, ptr, i32, ptr, ptr, ptr, ptr, ptr, i32, i32, i32, i32, i32, i32, ptr, ptr, ptr, ptr, ptr, ptr, i32, i32, ptr, ptr, ptr, ptr, ptr, ptr, ptr, ptr, ptr, ptr, ptr, ptr, ptr, ptr, ptr, ptr, ptr, ptr, ptr, ptr, ptr, ptr, ptr, ptr, ptr, ptr, ptr, ptr, ptr, ptr }
%struct.Vec_Ptr_t_ = type { i32, i32, ptr }

@.str = private unnamed_addr constant [6 x i8] c"Basic\00", align 1
@.str.1 = private unnamed_addr constant [5 x i8] c"time\00", align 1
@.str.2 = private unnamed_addr constant [6 x i8] c"sleep\00", align 1
@.str.3 = private unnamed_addr constant [5 x i8] c"echo\00", align 1
@.str.4 = private unnamed_addr constant [5 x i8] c"quit\00", align 1
@.str.5 = private unnamed_addr constant [6 x i8] c"abcrc\00", align 1
@.str.6 = private unnamed_addr constant [8 x i8] c"history\00", align 1
@.str.7 = private unnamed_addr constant [6 x i8] c"alias\00", align 1
@.str.8 = private unnamed_addr constant [8 x i8] c"unalias\00", align 1
@.str.9 = private unnamed_addr constant [5 x i8] c"help\00", align 1
@.str.10 = private unnamed_addr constant [7 x i8] c"source\00", align 1
@.str.11 = private unnamed_addr constant [4 x i8] c"set\00", align 1
@.str.12 = private unnamed_addr constant [6 x i8] c"unset\00", align 1
@.str.13 = private unnamed_addr constant [5 x i8] c"undo\00", align 1
@.str.14 = private unnamed_addr constant [7 x i8] c"recall\00", align 1
@.str.15 = private unnamed_addr constant [6 x i8] c"empty\00", align 1
@.str.16 = private unnamed_addr constant [7 x i8] c"scrgen\00", align 1
@.str.17 = private unnamed_addr constant [8 x i8] c"version\00", align 1
@.str.18 = private unnamed_addr constant [5 x i8] c"sgen\00", align 1
@.str.19 = private unnamed_addr constant [8 x i8] c"Various\00", align 1
@.str.20 = private unnamed_addr constant [4 x i8] c"sis\00", align 1
@.str.21 = private unnamed_addr constant [6 x i8] c"mvsis\00", align 1
@.str.22 = private unnamed_addr constant [5 x i8] c"capo\00", align 1
@.str.23 = private unnamed_addr constant [8 x i8] c"starter\00", align 1
@.str.24 = private unnamed_addr constant [10 x i8] c"autotuner\00", align 1
@.str.25 = private unnamed_addr constant [12 x i8] c"load_plugin\00", align 1

; Function Attrs: nounwind uwtable
define internal ptr @Vec_PtrAlloc(i32 noundef %0) #0 {
  %2 = alloca i32, align 4
  %3 = alloca ptr, align 8
  store i32 %0, ptr %2, align 4
  %4 = call noalias ptr @malloc(i64 noundef 16) #8
  store ptr %4, ptr %3, align 8
  %5 = load i32, ptr %2, align 4
  %6 = icmp sgt i32 %5, 0
  br i1 %6, label %7, label %11

7:                                                ; preds = %1
  %8 = load i32, ptr %2, align 4
  %9 = icmp slt i32 %8, 8
  br i1 %9, label %10, label %11

10:                                               ; preds = %7
  store i32 8, ptr %2, align 4
  br label %11

11:                                               ; preds = %10, %7, %1
  %12 = load ptr, ptr %3, align 8
  %13 = getelementptr inbounds %struct.Vec_Ptr_t_, ptr %12, i32 0, i32 1
  store i32 0, ptr %13, align 4
  %14 = load i32, ptr %2, align 4
  %15 = load ptr, ptr %3, align 8
  %16 = getelementptr inbounds %struct.Vec_Ptr_t_, ptr %15, i32 0, i32 0
  store i32 %14, ptr %16, align 8
  %17 = load ptr, ptr %3, align 8
  %18 = getelementptr inbounds %struct.Vec_Ptr_t_, ptr %17, i32 0, i32 0
  %19 = load i32, ptr %18, align 8
  %20 = icmp ne i32 %19, 0
  br i1 %20, label %21, label %28

21:                                               ; preds = %11
  %22 = load ptr, ptr %3, align 8
  %23 = getelementptr inbounds %struct.Vec_Ptr_t_, ptr %22, i32 0, i32 0
  %24 = load i32, ptr %23, align 8
  %25 = sext i32 %24 to i64
  %26 = mul i64 8, %25
  %27 = call noalias ptr @malloc(i64 noundef %26) #8
  br label %29

28:                                               ; preds = %11
  br label %29

29:                                               ; preds = %28, %21
  %30 = phi ptr [ %27, %21 ], [ null, %28 ]
  %31 = load ptr, ptr %3, align 8
  %32 = getelementptr inbounds %struct.Vec_Ptr_t_, ptr %31, i32 0, i32 2
  store ptr %30, ptr %32, align 8
  %33 = load ptr, ptr %3, align 8
  ret ptr %33
}

; Function Attrs: nounwind uwtable
define void @Cmd_Init(ptr noundef %0) #0 {
  %2 = alloca ptr, align 8
  store ptr %0, ptr %2, align 8
  %3 = call ptr @st__init_table(ptr noundef @strcmp, ptr noundef @st__strhash)
  %4 = load ptr, ptr %2, align 8
  %5 = getelementptr inbounds %struct.Abc_Frame_t_, ptr %4, i32 0, i32 2
  store ptr %3, ptr %5, align 8
  %6 = call ptr @st__init_table(ptr noundef @strcmp, ptr noundef @st__strhash)
  %7 = load ptr, ptr %2, align 8
  %8 = getelementptr inbounds %struct.Abc_Frame_t_, ptr %7, i32 0, i32 3
  store ptr %6, ptr %8, align 8
  %9 = call ptr @st__init_table(ptr noundef @strcmp, ptr noundef @st__strhash)
  %10 = load ptr, ptr %2, align 8
  %11 = getelementptr inbounds %struct.Abc_Frame_t_, ptr %10, i32 0, i32 4
  store ptr %9, ptr %11, align 8
  %12 = call ptr @Vec_PtrAlloc(i32 noundef 100)
  %13 = load ptr, ptr %2, align 8
  %14 = getelementptr inbounds %struct.Abc_Frame_t_, ptr %13, i32 0, i32 5
  store ptr %12, ptr %14, align 8
  %15 = load ptr, ptr %2, align 8
  call void @Cmd_HistoryRead(ptr noundef %15)
  %16 = load ptr, ptr %2, align 8
  call void @Cmd_CommandAdd(ptr noundef %16, ptr noundef @.str, ptr noundef @.str.1, ptr noundef @CmdCommandTime, i32 noundef 0)
  %17 = load ptr, ptr %2, align 8
  call void @Cmd_CommandAdd(ptr noundef %17, ptr noundef @.str, ptr noundef @.str.2, ptr noundef @CmdCommandSleep, i32 noundef 0)
  %18 = load ptr, ptr %2, align 8
  call void @Cmd_CommandAdd(ptr noundef %18, ptr noundef @.str, ptr noundef @.str.3, ptr noundef @CmdCommandEcho, i32 noundef 0)
  %19 = load ptr, ptr %2, align 8
  call void @Cmd_CommandAdd(ptr noundef %19, ptr noundef @.str, ptr noundef @.str.4, ptr noundef @CmdCommandQuit, i32 noundef 0)
  %20 = load ptr, ptr %2, align 8
  call void @Cmd_CommandAdd(ptr noundef %20, ptr noundef @.str, ptr noundef @.str.5, ptr noundef @CmdCommandAbcrc, i32 noundef 0)
  %21 = load ptr, ptr %2, align 8
  call void @Cmd_CommandAdd(ptr noundef %21, ptr noundef @.str, ptr noundef @.str.6, ptr noundef @CmdCommandHistory, i32 noundef 0)
  %22 = load ptr, ptr %2, align 8
  call void @Cmd_CommandAdd(ptr noundef %22, ptr noundef @.str, ptr noundef @.str.7, ptr noundef @CmdCommandAlias, i32 noundef 0)
  %23 = load ptr, ptr %2, align 8
  call void @Cmd_CommandAdd(ptr noundef %23, ptr noundef @.str, ptr noundef @.str.8, ptr noundef @CmdCommandUnalias, i32 noundef 0)
  %24 = load ptr, ptr %2, align 8
  call void @Cmd_CommandAdd(ptr noundef %24, ptr noundef @.str, ptr noundef @.str.9, ptr noundef @CmdCommandHelp, i32 noundef 0)
  %25 = load ptr, ptr %2, align 8
  call void @Cmd_CommandAdd(ptr noundef %25, ptr noundef @.str, ptr noundef @.str.10, ptr noundef @CmdCommandSource, i32 noundef 0)
  %26 = load ptr, ptr %2, align 8
  call void @Cmd_CommandAdd(ptr noundef %26, ptr noundef @.str, ptr noundef @.str.11, ptr noundef @CmdCommandSetVariable, i32 noundef 0)
  %27 = load ptr, ptr %2, align 8
  call void @Cmd_CommandAdd(ptr noundef %27, ptr noundef @.str, ptr noundef @.str.12, ptr noundef @CmdCommandUnsetVariable, i32 noundef 0)
  %28 = load ptr, ptr %2, align 8
  call void @Cmd_CommandAdd(ptr noundef %28, ptr noundef @.str, ptr noundef @.str.13, ptr noundef @CmdCommandUndo, i32 noundef 0)
  %29 = load ptr, ptr %2, align 8
  call void @Cmd_CommandAdd(ptr noundef %29, ptr noundef @.str, ptr noundef @.str.14, ptr noundef @CmdCommandRecall, i32 noundef 0)
  %30 = load ptr, ptr %2, align 8
  call void @Cmd_CommandAdd(ptr noundef %30, ptr noundef @.str, ptr noundef @.str.15, ptr noundef @CmdCommandEmpty, i32 noundef 0)
  %31 = load ptr, ptr %2, align 8
  call void @Cmd_CommandAdd(ptr noundef %31, ptr noundef @.str, ptr noundef @.str.16, ptr noundef @CmdCommandScrGenLinux, i32 noundef 0)
  %32 = load ptr, ptr %2, align 8
  call void @Cmd_CommandAdd(ptr noundef %32, ptr noundef @.str, ptr noundef @.str.17, ptr noundef @CmdCommandVersion, i32 noundef 0)
  %33 = load ptr, ptr %2, align 8
  call void @Cmd_CommandAdd(ptr noundef %33, ptr noundef @.str, ptr noundef @.str.18, ptr noundef @CmdCommandSGen, i32 noundef 0)
  %34 = load ptr, ptr %2, align 8
  call void @Cmd_CommandAdd(ptr noundef %34, ptr noundef @.str.19, ptr noundef @.str.20, ptr noundef @CmdCommandSis, i32 noundef 1)
  %35 = load ptr, ptr %2, align 8
  call void @Cmd_CommandAdd(ptr noundef %35, ptr noundef @.str.19, ptr noundef @.str.21, ptr noundef @CmdCommandMvsis, i32 noundef 1)
  %36 = load ptr, ptr %2, align 8
  call void @Cmd_CommandAdd(ptr noundef %36, ptr noundef @.str.19, ptr noundef @.str.22, ptr noundef @CmdCommandCapo, i32 noundef 0)
  %37 = load ptr, ptr %2, align 8
  call void @Cmd_CommandAdd(ptr noundef %37, ptr noundef @.str.19, ptr noundef @.str.23, ptr noundef @CmdCommandStarter, i32 noundef 0)
  %38 = load ptr, ptr %2, align 8
  call void @Cmd_CommandAdd(ptr noundef %38, ptr noundef @.str.19, ptr noundef @.str.24, ptr noundef @CmdCommandAutoTuner, i32 noundef 0)
  %39 = load ptr, ptr %2, align 8
  call void @Cmd_CommandAdd(ptr noundef %39, ptr noundef @.str.19, ptr noundef @.str.25, ptr noundef @Cmd_CommandAbcLoadPlugIn, i32 noundef 0)
  ret void
}