; Function Attrs: nounwind uwtable
define void @Cmd_Init(ptr noundef initializes((16, 48)) %0) local_unnamed_addr #0 {
  %2 = tail call ptr @st__init_table(ptr noundef nonnull @strcmp, ptr noundef nonnull @st__strhash) #17
  %3 = getelementptr inbounds nuw i8, ptr %0, i64 16
  store ptr %2, ptr %3, align 8
  %4 = tail call ptr @st__init_table(ptr noundef nonnull @strcmp, ptr noundef nonnull @st__strhash) #17
  %5 = getelementptr inbounds nuw i8, ptr %0, i64 24
  store ptr %4, ptr %5, align 8
  %6 = tail call ptr @st__init_table(ptr noundef nonnull @strcmp, ptr noundef nonnull @st__strhash) #17
  %7 = getelementptr inbounds nuw i8, ptr %0, i64 32
  store ptr %6, ptr %7, align 8
  %8 = tail call noalias dereferenceable_or_null(16) ptr @malloc(i64 noundef 16) #18
  %9 = getelementptr inbounds nuw i8, ptr %8, i64 4
  store i32 0, ptr %9, align 4
  store i32 100, ptr %8, align 8
  %10 = tail call noalias dereferenceable_or_null(800) ptr @malloc(i64 noundef 800) #18
  %11 = getelementptr inbounds nuw i8, ptr %8, i64 8
  store ptr %10, ptr %11, align 8
  %12 = getelementptr inbounds nuw i8, ptr %0, i64 40
  store ptr %8, ptr %12, align 8
  tail call void @Cmd_HistoryRead(ptr noundef %0) #17
  tail call void @Cmd_CommandAdd(ptr noundef %0, ptr noundef nonnull @.str, ptr noundef nonnull @.str.1, ptr noundef nonnull @CmdCommandTime, i32 noundef 0) #17
  tail call void @Cmd_CommandAdd(ptr noundef %0, ptr noundef nonnull @.str, ptr noundef nonnull @.str.2, ptr noundef nonnull @CmdCommandSleep, i32 noundef 0) #17
  tail call void @Cmd_CommandAdd(ptr noundef %0, ptr noundef nonnull @.str, ptr noundef nonnull @.str.3, ptr noundef nonnull @CmdCommandEcho, i32 noundef 0) #17
  tail call void @Cmd_CommandAdd(ptr noundef %0, ptr noundef nonnull @.str, ptr noundef nonnull @.str.4, ptr noundef nonnull @CmdCommandQuit, i32 noundef 0) #17
  tail call void @Cmd_CommandAdd(ptr noundef %0, ptr noundef nonnull @.str, ptr noundef nonnull @.str.5, ptr noundef nonnull @CmdCommandAbcrc, i32 noundef 0) #17
  tail call void @Cmd_CommandAdd(ptr noundef %0, ptr noundef nonnull @.str, ptr noundef nonnull @.str.6, ptr noundef nonnull @CmdCommandHistory, i32 noundef 0) #17
  tail call void @Cmd_CommandAdd(ptr noundef %0, ptr noundef nonnull @.str, ptr noundef nonnull @.str.7, ptr noundef nonnull @CmdCommandAlias, i32 noundef 0) #17
  tail call void @Cmd_CommandAdd(ptr noundef %0, ptr noundef nonnull @.str, ptr noundef nonnull @.str.8, ptr noundef nonnull @CmdCommandUnalias, i32 noundef 0) #17
  tail call void @Cmd_CommandAdd(ptr noundef %0, ptr noundef nonnull @.str, ptr noundef nonnull @.str.9, ptr noundef nonnull @CmdCommandHelp, i32 noundef 0) #17
  tail call void @Cmd_CommandAdd(ptr noundef %0, ptr noundef nonnull @.str, ptr noundef nonnull @.str.10, ptr noundef nonnull @CmdCommandSource, i32 noundef 0) #17
  tail call void @Cmd_CommandAdd(ptr noundef %0, ptr noundef nonnull @.str, ptr noundef nonnull @.str.11, ptr noundef nonnull @CmdCommandSetVariable, i32 noundef 0) #17
  tail call void @Cmd_CommandAdd(ptr noundef %0, ptr noundef nonnull @.str, ptr noundef nonnull @.str.12, ptr noundef nonnull @CmdCommandUnsetVariable, i32 noundef 0) #17
  tail call void @Cmd_CommandAdd(ptr noundef %0, ptr noundef nonnull @.str, ptr noundef nonnull @.str.13, ptr noundef nonnull @CmdCommandUndo, i32 noundef 0) #17
  tail call void @Cmd_CommandAdd(ptr noundef %0, ptr noundef nonnull @.str, ptr noundef nonnull @.str.14, ptr noundef nonnull @CmdCommandRecall, i32 noundef 0) #17
  tail call void @Cmd_CommandAdd(ptr noundef %0, ptr noundef nonnull @.str, ptr noundef nonnull @.str.15, ptr noundef nonnull @CmdCommandEmpty, i32 noundef 0) #17
  tail call void @Cmd_CommandAdd(ptr noundef %0, ptr noundef nonnull @.str, ptr noundef nonnull @.str.16, ptr noundef nonnull @CmdCommandScrGenLinux, i32 noundef 0) #17
  tail call void @Cmd_CommandAdd(ptr noundef %0, ptr noundef nonnull @.str, ptr noundef nonnull @.str.17, ptr noundef nonnull @CmdCommandVersion, i32 noundef 0) #17
  tail call void @Cmd_CommandAdd(ptr noundef %0, ptr noundef nonnull @.str, ptr noundef nonnull @.str.18, ptr noundef nonnull @CmdCommandSGen, i32 noundef 0) #17
  tail call void @Cmd_CommandAdd(ptr noundef %0, ptr noundef nonnull @.str.19, ptr noundef nonnull @.str.20, ptr noundef nonnull @CmdCommandSis, i32 noundef 1) #17
  tail call void @Cmd_CommandAdd(ptr noundef %0, ptr noundef nonnull @.str.19, ptr noundef nonnull @.str.21, ptr noundef nonnull @CmdCommandMvsis, i32 noundef 1) #17
  tail call void @Cmd_CommandAdd(ptr noundef %0, ptr noundef nonnull @.str.19, ptr noundef nonnull @.str.22, ptr noundef nonnull @CmdCommandCapo, i32 noundef 0) #17
  tail call void @Cmd_CommandAdd(ptr noundef %0, ptr noundef nonnull @.str.19, ptr noundef nonnull @.str.23, ptr noundef nonnull @CmdCommandStarter, i32 noundef 0) #17
  tail call void @Cmd_CommandAdd(ptr noundef %0, ptr noundef nonnull @.str.19, ptr noundef nonnull @.str.24, ptr noundef nonnull @CmdCommandAutoTuner, i32 noundef 0) #17
  tail call void @Cmd_CommandAdd(ptr noundef %0, ptr noundef nonnull @.str.19, ptr noundef nonnull @.str.25, ptr noundef nonnull @Cmd_CommandAbcLoadPlugIn, i32 noundef 0) #17
  ret void
}